target datalayout = "e-m:e-p270:32:32-p271:32:32-p272:64:64-i64:64-i128:128-f80:128-n8:16:32:64-S128"
target triple = "x86_64-pc-linux-gnu"

%"class.std::__cxx11::basic_string" = type { %"struct.std::__cxx11::basic_string<char>::_Alloc_hider", i64, %union.anon }
%"struct.std::__cxx11::basic_string<char>::_Alloc_hider" = type { ptr }
%union.anon = type { i64, [8 x i8] }
%"class.std::allocator" = type { i8 }

@.str.31 = private unnamed_addr constant [118 x i8] c"generated/home/dtcxzyw/WorkSpace/Projects/compilers/llvm-opt-benchmark/bench/opencv/opencv/modules/ts/src/ts_func.cpp\00", align 1
@.str.100 = private unnamed_addr constant [32 x i8] c"Unknown/unsupported border type\00", align 1
@__func__._ZN6cvtestL17borderInterpolateEiii = private unnamed_addr constant [18 x i8] c"borderInterpolate\00", align 1

; Function Attrs: mustprogress uwtable
define internal noundef i32 @_ZN6cvtestL17borderInterpolateEiii(i32 noundef %0, i32 noundef %1, i32 noundef %2) #6 personality ptr @__gxx_personality_v0 {
  %4 = alloca i32, align 4
  %5 = alloca i32, align 4
  %6 = alloca i32, align 4
  %7 = alloca i32, align 4
  %8 = alloca i32, align 4
  %9 = alloca %"class.std::__cxx11::basic_string", align 8
  %10 = alloca %"class.std::allocator", align 1
  %11 = alloca ptr, align 8
  %12 = alloca i32, align 4
  store i32 %0, ptr %5, align 4
  store i32 %1, ptr %6, align 4
  store i32 %2, ptr %7, align 4
  %13 = load i32, ptr %5, align 4
  %14 = load i32, ptr %6, align 4
  %15 = icmp ult i32 %13, %14
  br i1 %15, label %16, label %17

16:                                               ; preds = %3
  br label %113

17:                                               ; preds = %3
  %18 = load i32, ptr %7, align 4
  %19 = icmp eq i32 %18, 1
  br i1 %19, label %20, label %29

20:                                               ; preds = %17
  %21 = load i32, ptr %5, align 4
  %22 = icmp slt i32 %21, 0
  br i1 %22, label %23, label %24

23:                                               ; preds = %20
  br label %27

24:                                               ; preds = %20
  %25 = load i32, ptr %6, align 4
  %26 = sub nsw i32 %25, 1
  br label %27

27:                                               ; preds = %24, %23
  %28 = phi i32 [ 0, %23 ], [ %26, %24 ]
  store i32 %28, ptr %5, align 4
  br label %112

29:                                               ; preds = %17
  %30 = load i32, ptr %7, align 4
  %31 = icmp eq i32 %30, 2
  br i1 %31, label %35, label %32

32:                                               ; preds = %29
  %33 = load i32, ptr %7, align 4
  %34 = icmp eq i32 %33, 4
  br i1 %34, label %35, label %67

35:                                               ; preds = %32, %29
  %36 = load i32, ptr %7, align 4
  %37 = icmp eq i32 %36, 4
  %38 = zext i1 %37 to i32
  store i32 %38, ptr %8, align 4
  %39 = load i32, ptr %6, align 4
  %40 = icmp eq i32 %39, 1
  br i1 %40, label %41, label %42

41:                                               ; preds = %35
  store i32 0, ptr %4, align 4
  br label %115

42:                                               ; preds = %35
  br label %43

43:                                               ; preds = %62, %42
  %44 = load i32, ptr %5, align 4
  %45 = icmp slt i32 %44, 0
  br i1 %45, label %46, label %52

46:                                               ; preds = %43
  %47 = load i32, ptr %5, align 4
  %48 = sub nsw i32 0, %47
  %49 = sub nsw i32 %48, 1
  %50 = load i32, ptr %8, align 4
  %51 = add nsw i32 %49, %50
  store i32 %51, ptr %5, align 4
  br label %61

52:                                               ; preds = %43
  %53 = load i32, ptr %6, align 4
  %54 = sub nsw i32 %53, 1
  %55 = load i32, ptr %5, align 4
  %56 = load i32, ptr %6, align 4
  %57 = sub nsw i32 %55, %56
  %58 = sub nsw i32 %54, %57
  %59 = load i32, ptr %8, align 4
  %60 = sub nsw i32 %58, %59
  store i32 %60, ptr %5, align 4
  br label %61

61:                                               ; preds = %52, %46
  br label %62

62:                                               ; preds = %61
  %63 = load i32, ptr %5, align 4
  %64 = load i32, ptr %6, align 4
  %65 = icmp uge i32 %63, %64
  br i1 %65, label %43, label %66, !llvm.loop !146

66:                                               ; preds = %62
  br label %111

67:                                               ; preds = %32
  %68 = load i32, ptr %7, align 4
  %69 = icmp eq i32 %68, 3
  br i1 %69, label %70, label %93

70:                                               ; preds = %67
  %71 = load i32, ptr %5, align 4
  %72 = icmp slt i32 %71, 0
  br i1 %72, label %73, label %84

73:                                               ; preds = %70
  %74 = load i32, ptr %5, align 4
  %75 = load i32, ptr %6, align 4
  %76 = sub nsw i32 %74, %75
  %77 = add nsw i32 %76, 1
  %78 = load i32, ptr %6, align 4
  %79 = sdiv i32 %77, %78
  %80 = load i32, ptr %6, align 4
  %81 = mul nsw i32 %79, %80
  %82 = load i32, ptr %5, align 4
  %83 = sub nsw i32 %82, %81
  store i32 %83, ptr %5, align 4
  br label %84

84:                                               ; preds = %73, %70
  %85 = load i32, ptr %5, align 4
  %86 = load i32, ptr %6, align 4
  %87 = icmp sge i32 %85, %86
  br i1 %87, label %88, label %92

88:                                               ; preds = %84
  %89 = load i32, ptr %6, align 4
  %90 = load i32, ptr %5, align 4
  %91 = srem i32 %90, %89
  store i32 %91, ptr %5, align 4
  br label %92

92:                                               ; preds = %88, %84
  br label %110

93:                                               ; preds = %67
  %94 = load i32, ptr %7, align 4
  %95 = icmp eq i32 %94, 0
  br i1 %95, label %96, label %97

96:                                               ; preds = %93
  store i32 -1, ptr %5, align 4
  br label %109

97:                                               ; preds = %93
  call void @_ZNSaIcEC1Ev(ptr noundef nonnull align 1 dereferenceable(1) %10) #3
  invoke void @_ZNSt7__cxx1112basic_stringIcSt11char_traitsIcESaIcEEC1EPKcRKS3_(ptr noundef nonnull align 8 dereferenceable(32) %9, ptr noundef @.str.100, ptr noundef nonnull align 1 dereferenceable(1) %10)
          to label %98 unwind label %100

98:                                               ; preds = %97
  invoke void @_ZN2cv5errorEiRKNSt7__cxx1112basic_stringIcSt11char_traitsIcESaIcEEEPKcS9_i(i32 noundef -5, ptr noundef nonnull align 8 dereferenceable(32) %9, ptr noundef @__func__._ZN6cvtestL17borderInterpolateEiii, ptr noundef @.str.31, i32 noundef 889) #18
          to label %99 unwind label %104

99:                                               ; preds = %98
  unreachable

100:                                              ; preds = %97
  %101 = landingpad { ptr, i32 }
          cleanup
  %102 = extractvalue { ptr, i32 } %101, 0
  store ptr %102, ptr %11, align 8
  %103 = extractvalue { ptr, i32 } %101, 1
  store i32 %103, ptr %12, align 4
  br label %108

104:                                              ; preds = %98
  %105 = landingpad { ptr, i32 }
          cleanup
  %106 = extractvalue { ptr, i32 } %105, 0
  store ptr %106, ptr %11, align 8
  %107 = extractvalue { ptr, i32 } %105, 1
  store i32 %107, ptr %12, align 4
  call void @_ZNSt7__cxx1112basic_stringIcSt11char_traitsIcESaIcEED1Ev(ptr noundef nonnull align 8 dereferenceable(32) %9) #3
  br label %108

108:                                              ; preds = %104, %100
  call void @_ZNSaIcED1Ev(ptr noundef nonnull align 1 dereferenceable(1) %10) #3
  br label %117

109:                                              ; preds = %96
  br label %110

110:                                              ; preds = %109, %92
  br label %111

111:                                              ; preds = %110, %66
  br label %112

112:                                              ; preds = %111, %27
  br label %113

113:                                              ; preds = %112, %16
  %114 = load i32, ptr %5, align 4
  store i32 %114, ptr %4, align 4
  br label %115

115:                                              ; preds = %113, %41
  %116 = load i32, ptr %4, align 4
  ret i32 %116

117:                                              ; preds = %108
  %118 = load ptr, ptr %11, align 8
  %119 = load i32, ptr %12, align 4
  %120 = insertvalue { ptr, i32 } poison, ptr %118, 0
  %121 = insertvalue { ptr, i32 } %120, i32 %119, 1
  resume { ptr, i32 } %121
}