; Function Attrs: mustprogress uwtable
define internal fastcc noundef i32 @_ZN6cvtestL17borderInterpolateEiii(i32 noundef %0, i32 noundef %1, i32 noundef %2) unnamed_addr #6 personality ptr @__gxx_personality_v0 {
  %4 = alloca %"class.std::__cxx11::basic_string", align 8
  %5 = alloca %"class.std::allocator", align 1
  %6 = icmp ult i32 %0, %1
  br i1 %6, label %.loopexit, label %7

7:                                                ; preds = %3
  switch i32 %2, label %36 [
    i32 1, label %8
    i32 4, label %12
    i32 2, label %12
    i32 3, label %26
  ]

8:                                                ; preds = %7
  %9 = icmp slt i32 %0, 0
  %10 = add nsw i32 %1, -1
  %11 = select i1 %9, i32 0, i32 %10
  br label %.loopexit

12:                                               ; preds = %7, %7
  %13 = icmp eq i32 %2, 4
  %14 = zext i1 %13 to i32
  %15 = icmp eq i32 %1, 1
  br i1 %15, label %.loopexit, label %.preheader

.preheader:                                       ; preds = %12
  %reass.add = shl i32 %1, 1
  br label %16

16:                                               ; preds = %.preheader, %25
  %.036 = phi i32 [ %.1, %25 ], [ %0, %.preheader ]
  %17 = icmp slt i32 %.036, 0
  br i1 %17, label %18, label %21

18:                                               ; preds = %16
  %19 = xor i32 %.036, -1
  %20 = add nuw nsw i32 %19, %14
  br label %25

21:                                               ; preds = %16
  %22 = add nuw i32 %.036, %14
  %23 = xor i32 %22, -1
  %24 = add i32 %reass.add, %23
  br label %25

25:                                               ; preds = %18, %21
  %.1 = phi i32 [ %20, %18 ], [ %24, %21 ]
  %.not43 = icmp ult i32 %.1, %1
  br i1 %.not43, label %.loopexit, label %16, !llvm.loop !315

26:                                               ; preds = %7
  %27 = icmp slt i32 %0, 0
  br i1 %27, label %28, label %33

28:                                               ; preds = %26
  %29 = sub nsw i32 %0, %1
  %30 = add nsw i32 %29, 1
  %31 = srem i32 %30, %1
  %.neg44 = xor i32 %29, -1
  %.neg = add i32 %.neg44, %0
  %32 = add i32 %.neg, %31
  br label %33

33:                                               ; preds = %28, %26
  %.2 = phi i32 [ %32, %28 ], [ %0, %26 ]
  %.not = icmp slt i32 %.2, %1
  br i1 %.not, label %.loopexit, label %34

34:                                               ; preds = %33
  %35 = srem i32 %.2, %1
  br label %.loopexit

36:                                               ; preds = %7
  call void @_ZNSaIcEC1Ev(ptr noundef nonnull align 1 dereferenceable(1) %5) #28
  invoke void @_ZNSt7__cxx1112basic_stringIcSt11char_traitsIcESaIcEEC1EPKcRKS3_(ptr noundef nonnull align 8 dereferenceable(32) %4, ptr noundef nonnull @.str.100, ptr noundef nonnull align 1 dereferenceable(1) %5)
          to label %37 unwind label %39

37:                                               ; preds = %36
  invoke void @_ZN2cv5errorEiRKNSt7__cxx1112basic_stringIcSt11char_traitsIcESaIcEEEPKcS9_i(i32 noundef -5, ptr noundef nonnull align 8 dereferenceable(32) %4, ptr noundef nonnull @__func__._ZN6cvtestL17borderInterpolateEiii, ptr noundef nonnull @.str.31, i32 noundef 889) #29
          to label %38 unwind label %41

38:                                               ; preds = %37
  unreachable

39:                                               ; preds = %36
  %40 = landingpad { ptr, i32 }
          cleanup
  br label %43

41:                                               ; preds = %37
  %42 = landingpad { ptr, i32 }
          cleanup
  call void @_ZNSt7__cxx1112basic_stringIcSt11char_traitsIcESaIcEED1Ev(ptr noundef nonnull align 8 dereferenceable(32) %4) #28
  br label %43

43:                                               ; preds = %41, %39
  %.pn = phi { ptr, i32 } [ %42, %41 ], [ %40, %39 ]
  call void @_ZNSaIcED1Ev(ptr noundef nonnull align 1 dereferenceable(1) %5) #28
  resume { ptr, i32 } %.pn

.loopexit:                                        ; preds = %25, %3, %33, %34, %8, %12
  %.035 = phi i32 [ 0, %12 ], [ %0, %3 ], [ %11, %8 ], [ %35, %34 ], [ %.2, %33 ], [ %.1, %25 ]
  ret i32 %.035
}